; Function Attrs: nounwind uwtable
define dso_local range(i32 -1, 1) i32 @data_list_join_str(ptr noundef writeonly captures(none) %0, ptr noundef %1, ptr noundef %2) local_unnamed_addr #0 {
  %4 = alloca ptr, align 8
  %5 = alloca %struct.merge_path_strings_t, align 8
  call void @llvm.lifetime.start.p0(i64 24, ptr nonnull %5) #16
  %6 = getelementptr inbounds nuw i8, ptr %5, i64 8
  %7 = getelementptr inbounds nuw i8, ptr %5, i64 16
  call void @llvm.memset.p0.i64(ptr noundef nonnull align 8 dereferenceable(16) %5, i8 0, i64 16, i1 false)
  store ptr %2, ptr %7, align 8
  %.not.i = icmp eq ptr %1, null
  br i1 %.not.i, label %27, label %8

8:                                                ; preds = %3
  %9 = getelementptr inbounds nuw i8, ptr %1, i64 4
  %10 = load i32, ptr %9, align 4
  %.not22.i = icmp eq i32 %10, 65282
  br i1 %.not22.i, label %11, label %27

11:                                               ; preds = %8
  %12 = getelementptr inbounds nuw i8, ptr %1, i64 8
  %13 = load ptr, ptr %12, align 8
  %14 = getelementptr inbounds nuw i8, ptr %13, i64 16
  %15 = load ptr, ptr %14, align 8
  %.not2331.i = icmp eq ptr %15, null
  br i1 %.not2331.i, label %.loopexit, label %.lr.ph.i

.lr.ph.i:                                         ; preds = %11, %.thread.i
  %.01733.i = phi ptr [ %26, %.thread.i ], [ %15, %11 ]
  %16 = getelementptr inbounds nuw i8, ptr %.01733.i, i64 16
  %17 = load ptr, ptr %16, align 8
  call void @llvm.lifetime.start.p0(i64 8, ptr nonnull %4) #16
  store ptr null, ptr %4, align 8
  %18 = call i32 @data_get_string_converted(ptr noundef %17, ptr noundef nonnull %4)
  %.not.i7 = icmp eq i32 %18, 0
  br i1 %.not.i7, label %19, label %.thread.i

19:                                               ; preds = %.lr.ph.i
  %20 = load ptr, ptr %5, align 8
  %.not8.i = icmp eq ptr %20, null
  %21 = load ptr, ptr %7, align 8
  %spec.select = select i1 %.not8.i, ptr %21, ptr @.str.16
  %22 = load ptr, ptr %6, align 8
  %.not9.i = icmp eq ptr %22, null
  %23 = select i1 %.not9.i, ptr @.str.16, ptr %21
  %24 = load ptr, ptr %4, align 8
  call void (ptr, ptr, ptr, ...) @_xstrfmtcatat(ptr noundef nonnull %5, ptr noundef nonnull %6, ptr noundef nonnull @.str.82, ptr noundef %spec.select, ptr noundef %23, ptr noundef %24) #16
  br label %.thread.i

.thread.i:                                        ; preds = %19, %.lr.ph.i
  call void @slurm_xfree(ptr noundef nonnull %4) #16
  call void @llvm.lifetime.end.p0(i64 8, ptr nonnull %4) #16
  %25 = getelementptr inbounds nuw i8, ptr %.01733.i, i64 8
  %26 = load ptr, ptr %25, align 8
  %.not23.i = icmp eq ptr %26, null
  br i1 %.not23.i, label %.loopexit.loopexit, label %.lr.ph.i, !llvm.loop !13

27:                                               ; preds = %8, %3
  %28 = ptrtoint ptr %1 to i64
  %29 = tail call i32 (ptr, ...) @error(ptr noundef nonnull @.str.32, ptr noundef nonnull @__func__.data_list_for_each_const, i64 noundef %28) #16
  call void @slurm_xfree(ptr noundef nonnull %5) #16
  br label %35

.loopexit.loopexit:                               ; preds = %.thread.i
  %.pre = load ptr, ptr %5, align 8
  br label %.loopexit

.loopexit:                                        ; preds = %.loopexit.loopexit, %11
  %30 = phi ptr [ %.pre, %.loopexit.loopexit ], [ null, %11 ]
  store ptr %30, ptr %0, align 8
  %31 = load i64, ptr getelementptr inbounds nuw (i8, ptr @slurm_conf, i64 320), align 8
  %32 = and i64 %31, 256
  %.not = icmp eq i64 %32, 0
  br i1 %.not, label %35, label %33

33:                                               ; preds = %.loopexit
  %34 = call i64 @strlen(ptr noundef nonnull dereferenceable(1) %30) #17
  call void (ptr, i64, i64, i64, ptr, ...) @_log_flag_hex(ptr noundef nonnull %30, i64 noundef %34, i64 noundef -1, i64 noundef -1, ptr noundef nonnull @.str.31, ptr noundef nonnull @__func__.data_list_join_str, ptr noundef nonnull %1, ptr noundef %2) #16
  br label %35

35:                                               ; preds = %.loopexit, %33, %27
  %.0 = phi i32 [ -1, %27 ], [ 0, %33 ], [ 0, %.loopexit ]
  call void @llvm.lifetime.end.p0(i64 24, ptr nonnull %5) #16
  ret i32 %.0
}